target datalayout = "e-m:e-p270:32:32-p271:32:32-p272:64:64-i64:64-i128:128-f80:128-n8:16:32:64-S128"
target triple = "x86_64-pc-linux-gnu"

%struct._lv_canvas_t = type { %struct._lv_image_t, ptr, %struct._lv_draw_buf_t }
%struct._lv_image_t = type { %struct._lv_obj_t, ptr, ptr, %struct.lv_point_t, i32, i32, i32, i32, i32, %struct.lv_point_t, i16 }
%struct._lv_obj_t = type { ptr, ptr, ptr, ptr, ptr, %struct.lv_area_t, i32, i16, i16 }
%struct.lv_area_t = type { i32, i32, i32, i32 }
%struct.lv_point_t = type { i32, i32 }
%struct._lv_draw_buf_t = type { %struct.lv_image_header_t, i32, ptr, ptr, ptr }
%struct.lv_image_header_t = type <{ i64, i32 }>
%struct.lv_color_t = type { i8, i8, i8 }
%struct.lv_color32_t = type { i8, i8, i8, i8 }
%struct.lv_color16a_t = type { i8, i8 }

; Function Attrs: nounwind uwtable
define void @lv_canvas_set_px(ptr noundef %0, i32 noundef %1, i32 noundef %2, i24 %3, i8 noundef zeroext %4) #0 {
  %6 = alloca %struct.lv_color_t, align 1
  %7 = alloca ptr, align 8
  %8 = alloca i32, align 4
  %9 = alloca i32, align 4
  %10 = alloca i8, align 1
  %11 = alloca ptr, align 8
  %12 = alloca ptr, align 8
  %13 = alloca i32, align 4
  %14 = alloca ptr, align 8
  %15 = alloca i8, align 1
  %16 = alloca i8, align 1
  %17 = alloca i32, align 4
  %18 = alloca i8, align 1
  %19 = alloca i8, align 1
  %20 = alloca i24, align 4
  %21 = alloca ptr, align 8
  %22 = alloca ptr, align 8
  %23 = alloca ptr, align 8
  %24 = alloca i24, align 4
  store i24 %3, ptr %6, align 1
  store ptr %0, ptr %7, align 8, !tbaa !3
  store i32 %1, ptr %8, align 4, !tbaa !17
  store i32 %2, ptr %9, align 4, !tbaa !17
  store i8 %4, ptr %10, align 1, !tbaa !18
  br label %25

25:                                               ; preds = %5
  br label %26

26:                                               ; preds = %25
  call void @llvm.lifetime.start.p0(i64 8, ptr %11) #6
  %27 = load ptr, ptr %7, align 8, !tbaa !3
  store ptr %27, ptr %11, align 8, !tbaa !3
  call void @llvm.lifetime.start.p0(i64 8, ptr %12) #6
  %28 = load ptr, ptr %11, align 8, !tbaa !3
  %29 = getelementptr inbounds nuw %struct._lv_canvas_t, ptr %28, i32 0, i32 1
  %30 = load ptr, ptr %29, align 8, !tbaa !7
  store ptr %30, ptr %12, align 8, !tbaa !3
  call void @llvm.lifetime.start.p0(i64 4, ptr %13) #6
  %31 = load ptr, ptr %12, align 8, !tbaa !3
  %32 = getelementptr inbounds nuw %struct._lv_draw_buf_t, ptr %31, i32 0, i32 0
  %33 = load i64, ptr %32, align 8
  %34 = lshr i64 %33, 8
  %35 = and i64 %34, 255
  %36 = trunc i64 %35 to i32
  store i32 %36, ptr %13, align 4, !tbaa !17
  call void @llvm.lifetime.start.p0(i64 8, ptr %14) #6
  %37 = load ptr, ptr %12, align 8, !tbaa !3
  %38 = load i32, ptr %8, align 4, !tbaa !17
  %39 = load i32, ptr %9, align 4, !tbaa !17
  %40 = call ptr @lv_draw_buf_goto_xy(ptr noundef %37, i32 noundef %38, i32 noundef %39)
  store ptr %40, ptr %14, align 8, !tbaa !3
  %41 = load i32, ptr %13, align 4, !tbaa !17
  %42 = icmp uge i32 %41, 7
  br i1 %42, label %43, label %106

43:                                               ; preds = %26
  %44 = load i32, ptr %13, align 4, !tbaa !17
  %45 = icmp ule i32 %44, 10
  br i1 %45, label %46, label %106

46:                                               ; preds = %43
  call void @llvm.lifetime.start.p0(i64 1, ptr %15) #6
  call void @llvm.lifetime.start.p0(i64 1, ptr %16) #6
  %47 = getelementptr inbounds nuw %struct.lv_color_t, ptr %6, i32 0, i32 0
  %48 = load i8, ptr %47, align 1, !tbaa !19
  store i8 %48, ptr %16, align 1, !tbaa !18
  %49 = load i32, ptr %13, align 4, !tbaa !17
  switch i32 %49, label %70 [
    i32 7, label %50
    i32 8, label %55
    i32 9, label %61
    i32 10, label %67
  ]

50:                                               ; preds = %46
  %51 = load i32, ptr %8, align 4, !tbaa !17
  %52 = and i32 %51, 7
  %53 = sub nsw i32 7, %52
  %54 = trunc i32 %53 to i8
  store i8 %54, ptr %15, align 1, !tbaa !18
  br label %71

55:                                               ; preds = %46
  %56 = load i32, ptr %8, align 4, !tbaa !17
  %57 = and i32 %56, 3
  %58 = mul nsw i32 2, %57
  %59 = sub nsw i32 6, %58
  %60 = trunc i32 %59 to i8
  store i8 %60, ptr %15, align 1, !tbaa !18
  br label %71

61:                                               ; preds = %46
  %62 = load i32, ptr %8, align 4, !tbaa !17
  %63 = and i32 %62, 1
  %64 = mul nsw i32 4, %63
  %65 = sub nsw i32 4, %64
  %66 = trunc i32 %65 to i8
  store i8 %66, ptr %15, align 1, !tbaa !18
  br label %71

67:                                               ; preds = %46
  %68 = load i8, ptr %16, align 1, !tbaa !18
  %69 = load ptr, ptr %14, align 8, !tbaa !3
  store i8 %68, ptr %69, align 1, !tbaa !18
  br label %70

70:                                               ; preds = %46, %67
  store i32 1, ptr %17, align 4
  br label %103

71:                                               ; preds = %61, %55, %50
  call void @llvm.lifetime.start.p0(i64 1, ptr %18) #6
  %72 = load i32, ptr %13, align 4, !tbaa !17
  %73 = call zeroext i8 @lv_color_format_get_bpp(i32 noundef %72)
  store i8 %73, ptr %18, align 1, !tbaa !18
  call void @llvm.lifetime.start.p0(i64 1, ptr %19) #6
  %74 = load i8, ptr %18, align 1, !tbaa !18
  %75 = zext i8 %74 to i32
  %76 = shl i32 1, %75
  %77 = sub nsw i32 %76, 1
  %78 = trunc i32 %77 to i8
  store i8 %78, ptr %19, align 1, !tbaa !18
  %79 = load i8, ptr %19, align 1, !tbaa !18
  %80 = zext i8 %79 to i32
  %81 = load i8, ptr %16, align 1, !tbaa !18
  %82 = zext i8 %81 to i32
  %83 = and i32 %82, %80
  %84 = trunc i32 %83 to i8
  store i8 %84, ptr %16, align 1, !tbaa !18
  %85 = load ptr, ptr %14, align 8, !tbaa !3
  %86 = load i8, ptr %85, align 1, !tbaa !18
  %87 = zext i8 %86 to i32
  %88 = load i8, ptr %19, align 1, !tbaa !18
  %89 = zext i8 %88 to i32
  %90 = load i8, ptr %15, align 1, !tbaa !18
  %91 = zext i8 %90 to i32
  %92 = shl i32 %89, %91
  %93 = xor i32 %92, -1
  %94 = and i32 %87, %93
  %95 = load i8, ptr %16, align 1, !tbaa !18
  %96 = zext i8 %95 to i32
  %97 = load i8, ptr %15, align 1, !tbaa !18
  %98 = zext i8 %97 to i32
  %99 = shl i32 %96, %98
  %100 = or i32 %94, %99
  %101 = trunc i32 %100 to i8
  %102 = load ptr, ptr %14, align 8, !tbaa !3
  store i8 %101, ptr %102, align 1, !tbaa !18
  call void @llvm.lifetime.end.p0(i64 1, ptr %19) #6
  call void @llvm.lifetime.end.p0(i64 1, ptr %18) #6
  store i32 0, ptr %17, align 4
  br label %103

103:                                              ; preds = %71, %70
  call void @llvm.lifetime.end.p0(i64 1, ptr %16) #6
  call void @llvm.lifetime.end.p0(i64 1, ptr %15) #6
  %104 = load i32, ptr %17, align 4
  switch i32 %104, label %230 [
    i32 0, label %105
  ]

105:                                              ; preds = %103
  br label %228

106:                                              ; preds = %43, %26
  %107 = load i32, ptr %13, align 4, !tbaa !17
  %108 = icmp eq i32 %107, 6
  br i1 %108, label %109, label %113

109:                                              ; preds = %106
  call void @llvm.memcpy.p0.p0.i64(ptr align 4 %20, ptr align 1 %6, i64 3, i1 false)
  %110 = load i24, ptr %20, align 4
  %111 = call zeroext i8 @lv_color_luminance(i24 %110)
  %112 = load ptr, ptr %14, align 8, !tbaa !3
  store i8 %111, ptr %112, align 1, !tbaa !18
  br label %227

113:                                              ; preds = %106
  %114 = load i32, ptr %13, align 4, !tbaa !17
  %115 = icmp eq i32 %114, 14
  br i1 %115, label %116, label %119

116:                                              ; preds = %113
  %117 = load i8, ptr %10, align 1, !tbaa !18
  %118 = load ptr, ptr %14, align 8, !tbaa !3
  store i8 %117, ptr %118, align 1, !tbaa !18
  br label %226

119:                                              ; preds = %113
  %120 = load i32, ptr %13, align 4, !tbaa !17
  %121 = icmp eq i32 %120, 18
  br i1 %121, label %122, label %156

122:                                              ; preds = %119
  call void @llvm.lifetime.start.p0(i64 8, ptr %21) #6
  %123 = load ptr, ptr %14, align 8, !tbaa !3
  store ptr %123, ptr %21, align 8, !tbaa !3
  %124 = getelementptr inbounds nuw %struct.lv_color_t, ptr %6, i32 0, i32 2
  %125 = load i8, ptr %124, align 1, !tbaa !21
  %126 = zext i8 %125 to i32
  %127 = ashr i32 %126, 3
  %128 = trunc i32 %127 to i16
  %129 = load ptr, ptr %21, align 8, !tbaa !3
  %130 = load i16, ptr %129, align 2
  %131 = and i16 %128, 31
  %132 = shl i16 %131, 11
  %133 = and i16 %130, 2047
  %134 = or i16 %133, %132
  store i16 %134, ptr %129, align 2
  %135 = getelementptr inbounds nuw %struct.lv_color_t, ptr %6, i32 0, i32 1
  %136 = load i8, ptr %135, align 1, !tbaa !22
  %137 = zext i8 %136 to i32
  %138 = ashr i32 %137, 2
  %139 = trunc i32 %138 to i16
  %140 = load ptr, ptr %21, align 8, !tbaa !3
  %141 = load i16, ptr %140, align 2
  %142 = and i16 %139, 63
  %143 = shl i16 %142, 5
  %144 = and i16 %141, -2017
  %145 = or i16 %144, %143
  store i16 %145, ptr %140, align 2
  %146 = getelementptr inbounds nuw %struct.lv_color_t, ptr %6, i32 0, i32 0
  %147 = load i8, ptr %146, align 1, !tbaa !19
  %148 = zext i8 %147 to i32
  %149 = ashr i32 %148, 3
  %150 = trunc i32 %149 to i16
  %151 = load ptr, ptr %21, align 8, !tbaa !3
  %152 = load i16, ptr %151, align 2
  %153 = and i16 %150, 31
  %154 = and i16 %152, -32
  %155 = or i16 %154, %153
  store i16 %155, ptr %151, align 2
  call void @llvm.lifetime.end.p0(i64 8, ptr %21) #6
  br label %225

156:                                              ; preds = %119
  %157 = load i32, ptr %13, align 4, !tbaa !17
  %158 = icmp eq i32 %157, 15
  br i1 %158, label %159, label %172

159:                                              ; preds = %156
  %160 = getelementptr inbounds nuw %struct.lv_color_t, ptr %6, i32 0, i32 2
  %161 = load i8, ptr %160, align 1, !tbaa !21
  %162 = load ptr, ptr %14, align 8, !tbaa !3
  %163 = getelementptr inbounds i8, ptr %162, i64 2
  store i8 %161, ptr %163, align 1, !tbaa !18
  %164 = getelementptr inbounds nuw %struct.lv_color_t, ptr %6, i32 0, i32 1
  %165 = load i8, ptr %164, align 1, !tbaa !22
  %166 = load ptr, ptr %14, align 8, !tbaa !3
  %167 = getelementptr inbounds i8, ptr %166, i64 1
  store i8 %165, ptr %167, align 1, !tbaa !18
  %168 = getelementptr inbounds nuw %struct.lv_color_t, ptr %6, i32 0, i32 0
  %169 = load i8, ptr %168, align 1, !tbaa !19
  %170 = load ptr, ptr %14, align 8, !tbaa !3
  %171 = getelementptr inbounds i8, ptr %170, i64 0
  store i8 %169, ptr %171, align 1, !tbaa !18
  br label %224

172:                                              ; preds = %156
  %173 = load i32, ptr %13, align 4, !tbaa !17
  %174 = icmp eq i32 %173, 17
  br i1 %174, label %175, label %190

175:                                              ; preds = %172
  %176 = getelementptr inbounds nuw %struct.lv_color_t, ptr %6, i32 0, i32 2
  %177 = load i8, ptr %176, align 1, !tbaa !21
  %178 = load ptr, ptr %14, align 8, !tbaa !3
  %179 = getelementptr inbounds i8, ptr %178, i64 2
  store i8 %177, ptr %179, align 1, !tbaa !18
  %180 = getelementptr inbounds nuw %struct.lv_color_t, ptr %6, i32 0, i32 1
  %181 = load i8, ptr %180, align 1, !tbaa !22
  %182 = load ptr, ptr %14, align 8, !tbaa !3
  %183 = getelementptr inbounds i8, ptr %182, i64 1
  store i8 %181, ptr %183, align 1, !tbaa !18
  %184 = getelementptr inbounds nuw %struct.lv_color_t, ptr %6, i32 0, i32 0
  %185 = load i8, ptr %184, align 1, !tbaa !19
  %186 = load ptr, ptr %14, align 8, !tbaa !3
  %187 = getelementptr inbounds i8, ptr %186, i64 0
  store i8 %185, ptr %187, align 1, !tbaa !18
  %188 = load ptr, ptr %14, align 8, !tbaa !3
  %189 = getelementptr inbounds i8, ptr %188, i64 3
  store i8 -1, ptr %189, align 1, !tbaa !18
  br label %223

190:                                              ; preds = %172
  %191 = load i32, ptr %13, align 4, !tbaa !17
  %192 = icmp eq i32 %191, 16
  br i1 %192, label %193, label %210

193:                                              ; preds = %190
  call void @llvm.lifetime.start.p0(i64 8, ptr %22) #6
  %194 = load ptr, ptr %14, align 8, !tbaa !3
  store ptr %194, ptr %22, align 8, !tbaa !3
  %195 = getelementptr inbounds nuw %struct.lv_color_t, ptr %6, i32 0, i32 2
  %196 = load i8, ptr %195, align 1, !tbaa !21
  %197 = load ptr, ptr %22, align 8, !tbaa !3
  %198 = getelementptr inbounds nuw %struct.lv_color32_t, ptr %197, i32 0, i32 2
  store i8 %196, ptr %198, align 1, !tbaa !23
  %199 = getelementptr inbounds nuw %struct.lv_color_t, ptr %6, i32 0, i32 1
  %200 = load i8, ptr %199, align 1, !tbaa !22
  %201 = load ptr, ptr %22, align 8, !tbaa !3
  %202 = getelementptr inbounds nuw %struct.lv_color32_t, ptr %201, i32 0, i32 1
  store i8 %200, ptr %202, align 1, !tbaa !25
  %203 = getelementptr inbounds nuw %struct.lv_color_t, ptr %6, i32 0, i32 0
  %204 = load i8, ptr %203, align 1, !tbaa !19
  %205 = load ptr, ptr %22, align 8, !tbaa !3
  %206 = getelementptr inbounds nuw %struct.lv_color32_t, ptr %205, i32 0, i32 0
  store i8 %204, ptr %206, align 1, !tbaa !26
  %207 = load i8, ptr %10, align 1, !tbaa !18
  %208 = load ptr, ptr %22, align 8, !tbaa !3
  %209 = getelementptr inbounds nuw %struct.lv_color32_t, ptr %208, i32 0, i32 3
  store i8 %207, ptr %209, align 1, !tbaa !27
  call void @llvm.lifetime.end.p0(i64 8, ptr %22) #6
  br label %222

210:                                              ; preds = %190
  %211 = load i32, ptr %13, align 4, !tbaa !17
  %212 = icmp eq i32 %211, 21
  br i1 %212, label %213, label %221

213:                                              ; preds = %210
  call void @llvm.lifetime.start.p0(i64 8, ptr %23) #6
  %214 = load ptr, ptr %14, align 8, !tbaa !3
  store ptr %214, ptr %23, align 8, !tbaa !3
  call void @llvm.memcpy.p0.p0.i64(ptr align 4 %24, ptr align 1 %6, i64 3, i1 false)
  %215 = load i24, ptr %24, align 4
  %216 = call zeroext i8 @lv_color_luminance(i24 %215)
  %217 = load ptr, ptr %23, align 8, !tbaa !3
  %218 = getelementptr inbounds nuw %struct.lv_color16a_t, ptr %217, i32 0, i32 0
  store i8 %216, ptr %218, align 1, !tbaa !28
  %219 = load ptr, ptr %23, align 8, !tbaa !3
  %220 = getelementptr inbounds nuw %struct.lv_color16a_t, ptr %219, i32 0, i32 1
  store i8 -1, ptr %220, align 1, !tbaa !30
  call void @llvm.lifetime.end.p0(i64 8, ptr %23) #6
  br label %221

221:                                              ; preds = %213, %210
  br label %222

222:                                              ; preds = %221, %193
  br label %223

223:                                              ; preds = %222, %175
  br label %224

224:                                              ; preds = %223, %159
  br label %225

225:                                              ; preds = %224, %122
  br label %226

226:                                              ; preds = %225, %116
  br label %227

227:                                              ; preds = %226, %109
  br label %228

228:                                              ; preds = %227, %105
  %229 = load ptr, ptr %7, align 8, !tbaa !3
  call void @lv_obj_invalidate(ptr noundef %229)
  store i32 0, ptr %17, align 4
  br label %230

230:                                              ; preds = %228, %103
  call void @llvm.lifetime.end.p0(i64 8, ptr %14) #6
  call void @llvm.lifetime.end.p0(i64 4, ptr %13) #6
  call void @llvm.lifetime.end.p0(i64 8, ptr %12) #6
  call void @llvm.lifetime.end.p0(i64 8, ptr %11) #6
  %231 = load i32, ptr %17, align 4
  switch i32 %231, label %233 [
    i32 0, label %232
    i32 1, label %232
  ]

232:                                              ; preds = %230, %230
  ret void

233:                                              ; preds = %230
  unreachable
}