; Function Attrs: nounwind uwtable
define void @lv_canvas_set_px(ptr noundef %0, i32 noundef %1, i32 noundef %2, i24 %3, i8 noundef zeroext %4) local_unnamed_addr #1 {
  %.sroa.0.0.extract.trunc = trunc i24 %3 to i8
  %.sroa.8.0.extract.shift = lshr i24 %3, 8
  %.sroa.8.0.extract.trunc = trunc i24 %.sroa.8.0.extract.shift to i8
  %.sroa.12.0.extract.shift = lshr i24 %3, 16
  %.sroa.12.0.extract.trunc = trunc nuw i24 %.sroa.12.0.extract.shift to i8
  %6 = getelementptr inbounds nuw i8, ptr %0, i64 120
  %7 = load ptr, ptr %6, align 8, !tbaa !3
  %8 = load i64, ptr %7, align 8
  %9 = trunc i64 %8 to i32
  %10 = lshr i32 %9, 8
  %11 = and i32 %10, 255
  %12 = tail call ptr @lv_draw_buf_goto_xy(ptr noundef nonnull %7, i32 noundef %1, i32 noundef %2) #5
  %13 = add nsw i32 %11, -7
  %or.cond = icmp ult i32 %13, 4
  br i1 %or.cond, label %14, label %41

14:                                               ; preds = %5
  switch i32 %11, label %default.unreachable [
    i32 7, label %15
    i32 8, label %18
    i32 9, label %22
    i32 10, label %.critedge
  ]

15:                                               ; preds = %14
  %16 = and i32 %1, 7
  %17 = xor i32 %16, 7
  br label %26

18:                                               ; preds = %14
  %19 = shl i32 %1, 1
  %20 = and i32 %19, 6
  %21 = xor i32 %20, 6
  br label %26

22:                                               ; preds = %14
  %23 = shl i32 %1, 2
  %24 = and i32 %23, 4
  %25 = xor i32 %24, 4
  br label %26

.critedge:                                        ; preds = %14
  store i8 %.sroa.0.0.extract.trunc, ptr %12, align 1, !tbaa !16
  br label %68

default.unreachable:                              ; preds = %14
  unreachable

26:                                               ; preds = %22, %18, %15
  %.0 = phi i32 [ %25, %22 ], [ %21, %18 ], [ %17, %15 ]
  %27 = tail call zeroext i8 @lv_color_format_get_bpp(i32 noundef %11) #5
  %28 = zext nneg i8 %27 to i32
  %notmask = shl nsw i32 -1, %28
  %29 = and i32 %notmask, 255
  %30 = xor i32 %29, 255
  %31 = zext i24 %3 to i32
  %32 = and i32 %30, %31
  %33 = load i8, ptr %12, align 1, !tbaa !16
  %34 = zext i8 %33 to i32
  %35 = shl nuw nsw i32 %30, %.0
  %36 = xor i32 %35, -1
  %37 = and i32 %36, %34
  %38 = shl nuw nsw i32 %32, %.0
  %39 = or i32 %37, %38
  %40 = trunc i32 %39 to i8
  store i8 %40, ptr %12, align 1, !tbaa !16
  br label %67

41:                                               ; preds = %5
  %trunc = trunc i32 %10 to i8
  switch i8 %trunc, label %67 [
    i8 6, label %42
    i8 14, label %44
    i8 18, label %45
    i8 15, label %53
    i8 17, label %56
    i8 16, label %60
    i8 21, label %64
  ]

42:                                               ; preds = %41
  %43 = tail call zeroext i8 @lv_color_luminance(i24 %3) #5
  store i8 %43, ptr %12, align 1, !tbaa !16
  br label %67

44:                                               ; preds = %41
  store i8 %4, ptr %12, align 1, !tbaa !16
  br label %67

45:                                               ; preds = %41
  %tr.sh.diff = trunc nuw i24 %.sroa.8.0.extract.shift to i16
  %46 = and i16 %tr.sh.diff, -2048
  %47 = trunc i24 %3 to i16
  %48 = lshr i16 %47, 5
  %49 = lshr i16 %47, 3
  %50 = and i16 %49, 31
  %.masked = and i16 %48, 2016
  %51 = or disjoint i16 %46, %.masked
  %52 = or disjoint i16 %51, %50
  store i16 %52, ptr %12, align 2
  br label %67

53:                                               ; preds = %41
  %54 = getelementptr inbounds i8, ptr %12, i64 2
  store i8 %.sroa.12.0.extract.trunc, ptr %54, align 1, !tbaa !16
  %55 = getelementptr inbounds i8, ptr %12, i64 1
  store i8 %.sroa.8.0.extract.trunc, ptr %55, align 1, !tbaa !16
  store i8 %.sroa.0.0.extract.trunc, ptr %12, align 1, !tbaa !16
  br label %67

56:                                               ; preds = %41
  %57 = getelementptr inbounds i8, ptr %12, i64 2
  store i8 %.sroa.12.0.extract.trunc, ptr %57, align 1, !tbaa !16
  %58 = getelementptr inbounds i8, ptr %12, i64 1
  store i8 %.sroa.8.0.extract.trunc, ptr %58, align 1, !tbaa !16
  store i8 %.sroa.0.0.extract.trunc, ptr %12, align 1, !tbaa !16
  %59 = getelementptr inbounds i8, ptr %12, i64 3
  store i8 -1, ptr %59, align 1, !tbaa !16
  br label %67

60:                                               ; preds = %41
  %61 = getelementptr inbounds nuw i8, ptr %12, i64 2
  store i8 %.sroa.12.0.extract.trunc, ptr %61, align 1, !tbaa !17
  %62 = getelementptr inbounds nuw i8, ptr %12, i64 1
  store i8 %.sroa.8.0.extract.trunc, ptr %62, align 1, !tbaa !19
  store i8 %.sroa.0.0.extract.trunc, ptr %12, align 1, !tbaa !20
  %63 = getelementptr inbounds nuw i8, ptr %12, i64 3
  store i8 %4, ptr %63, align 1, !tbaa !21
  br label %67

64:                                               ; preds = %41
  %65 = tail call zeroext i8 @lv_color_luminance(i24 %3) #5
  store i8 %65, ptr %12, align 1, !tbaa !22
  %66 = getelementptr inbounds nuw i8, ptr %12, i64 1
  store i8 -1, ptr %66, align 1, !tbaa !24
  br label %67

67:                                               ; preds = %41, %26, %42, %45, %56, %64, %60, %53, %44
  tail call void @lv_obj_invalidate(ptr noundef nonnull %0) #5
  br label %68

68:                                               ; preds = %.critedge, %67
  ret void
}